Certificate:
    Data:
        Version: 3 (0x2)
        Serial Number: 3 (0x3)
        Signature Algorithm: md5WithRSAEncryption
        Issuer: C=PL, O=HoneySpy network, OU=Master Server, CN=Master
        Validity
            Not Before: Oct 25 08:26:44 2005 GMT
            Not After : Oct 25 08:26:44 2006 GMT
        Subject: C=PL, O=HoneySpy network, OU=Sensor, CN=sensor1
        Subject Public Key Info:
            Public Key Algorithm: rsaEncryption
            RSA Public Key: (1024 bit)
                Modulus (1024 bit):
                    00:ad:17:b2:d3:3a:46:48:fe:b5:8e:08:36:96:13:
                    16:79:32:f3:d9:a3:71:66:80:b9:00:d3:a2:92:eb:
                    73:62:bf:2c:72:cf:1a:4b:a6:c3:9f:ec:ae:dd:01:
                    da:96:a9:3a:78:f5:1f:0d:88:fa:e9:f6:44:96:cf:
                    65:0c:ad:24:6e:dc:3f:06:c8:a2:a9:9f:1d:85:85:
                    54:ec:37:77:e8:38:2b:9b:62:e0:f8:b1:d9:63:cc:
                    d9:44:23:35:d9:86:d8:db:3e:68:60:ef:4d:b2:8d:
                    46:de:26:6c:26:18:11:52:39:55:a5:b4:e6:12:91:
                    43:5a:7a:3a:a6:8c:46:13:d3
                Exponent: 65537 (0x10001)
        X509v3 extensions:
            X509v3 Basic Constraints: 
                CA:FALSE
            Netscape Comment: 
                OpenSSL Generated Certificate
            X509v3 Subject Key Identifier: 
                79:E7:75:AB:6B:CA:17:A3:F8:11:37:1F:D8:0C:11:06:D3:04:73:B1
            X509v3 Authority Key Identifier: 
                keyid:50:79:E0:34:20:D6:D3:A8:E2:EE:50:D9:A0:5A:62:93:21:04:17:BC
                DirName:/C=PL/O=HoneySpy network/OU=Master Server/CN=Master
                serial:E7:F9:4C:4F:D5:59:A0:C3

    Signature Algorithm: md5WithRSAEncryption
        6b:81:ce:d6:ed:97:d5:58:8c:e4:9e:b8:43:91:c2:71:d4:8e:
        d8:27:32:00:db:71:a7:9a:a7:80:eb:cc:51:5f:b0:8d:93:3a:
        28:fc:ad:9f:cb:de:f6:54:3f:b0:73:19:31:a7:2b:25:92:8c:
        a2:f0:4b:cf:4c:f5:1e:f0:96:67:53:44:a2:0c:e9:33:60:6f:
        cf:e2:e8:4d:5a:7f:f9:95:85:33:fb:eb:f7:b3:6e:9f:eb:4f:
        5f:28:d9:3c:e7:b6:e4:9c:30:44:1c:82:7e:a8:1d:61:b0:69:
        a6:b5:33:80:37:94:4a:34:63:91:60:f7:26:31:bd:3c:01:45:
        1f:91
-----BEGIN CERTIFICATE-----
MIIC8jCCAlugAwIBAgIBAzANBgkqhkiG9w0BAQQFADBRMQswCQYDVQQGEwJQTDEZ
MBcGA1UEChMQSG9uZXlTcHkgbmV0d29yazEWMBQGA1UECxMNTWFzdGVyIFNlcnZl
cjEPMA0GA1UEAxMGTWFzdGVyMB4XDTA1MTAyNTA4MjY0NFoXDTA2MTAyNTA4MjY0
NFowSzELMAkGA1UEBhMCUEwxGTAXBgNVBAoTEEhvbmV5U3B5IG5ldHdvcmsxDzAN
BgNVBAsTBlNlbnNvcjEQMA4GA1UEAxMHc2Vuc29yMTCBnzANBgkqhkiG9w0BAQEF
AAOBjQAwgYkCgYEArRey0zpGSP61jgg2lhMWeTLz2aNxZoC5ANOikutzYr8scs8a
S6bDn+yu3QHalqk6ePUfDYj66fZEls9lDK0kbtw/BsiiqZ8dhYVU7Dd36Dgrm2Lg
+LHZY8zZRCM12YbY2z5oYO9Nso1G3iZsJhgRUjlVpbTmEpFDWno6poxGE9MCAwEA
AaOB3zCB3DAJBgNVHRMEAjAAMCwGCWCGSAGG+EIBDQQfFh1PcGVuU1NMIEdlbmVy
YXRlZCBDZXJ0aWZpY2F0ZTAdBgNVHQ4EFgQUeed1q2vKF6P4ETcf2AwRBtMEc7Ew
gYEGA1UdIwR6MHiAFFB54DQg1tOo4u5Q2aBaYpMhBBe8oVWkUzBRMQswCQYDVQQG
EwJQTDEZMBcGA1UEChMQSG9uZXlTcHkgbmV0d29yazEWMBQGA1UECxMNTWFzdGVy
IFNlcnZlcjEPMA0GA1UEAxMGTWFzdGVyggkA5/lMT9VZoMMwDQYJKoZIhvcNAQEE
BQADgYEAa4HO1u2X1ViM5J64Q5HCcdSO2CcyANtxp5qngOvMUV+wjZM6KPytn8ve
9lQ/sHMZMacrJZKMovBLz0z1HvCWZ1NEogzpM2Bvz+LoTVp/+ZWFM/vr97Nun+tP
XyjZPOe25JwwRByCfqgdYbBpprUzgDeUSjRjkWD3JjG9PAFFH5E=
-----END CERTIFICATE-----
