Certificate:
    Data:
        Version: 3 (0x2)
        Serial Number: 5 (0x5)
        Signature Algorithm: md5WithRSAEncryption
        Issuer: C=PL, O=HoneySpy network, OU=Master Server, CN=Master
        Validity
            Not Before: Oct 31 13:59:40 2005 GMT
            Not After : Oct 31 13:59:40 2006 GMT
        Subject: C=PL, O=HoneySpy network, OU=Sensor, CN=sensor1
        Subject Public Key Info:
            Public Key Algorithm: rsaEncryption
            RSA Public Key: (1024 bit)
                Modulus (1024 bit):
                    00:d0:37:5a:75:1d:3e:e1:38:ad:5c:23:e9:91:77:
                    04:98:86:39:e6:d7:fd:1f:cf:15:eb:a5:d3:20:2a:
                    f7:f3:03:53:61:17:08:c3:f5:12:04:41:b4:0e:cb:
                    64:28:41:da:2a:8d:3a:cf:38:e5:a2:c3:33:ec:fa:
                    25:b1:0e:46:7f:74:d1:b6:94:9d:63:63:b8:30:ac:
                    d7:e3:b9:15:b7:57:1f:cb:c7:17:36:c9:25:2b:84:
                    3e:29:eb:61:f7:6a:78:47:76:1b:3c:4d:55:08:8d:
                    f7:e9:96:5b:5b:8d:41:14:f0:bc:48:82:7d:92:ea:
                    ec:7a:fc:dd:a1:75:d4:a6:39
                Exponent: 65537 (0x10001)
        X509v3 extensions:
            X509v3 Basic Constraints: 
                CA:FALSE
            Netscape Comment: 
                OpenSSL Generated Certificate
            X509v3 Subject Key Identifier: 
                01:2C:9F:5E:CF:33:37:53:A0:25:25:25:C1:73:DC:CF:44:9B:22:A9
            X509v3 Authority Key Identifier: 
                keyid:60:B2:41:A0:4B:6D:CB:CD:E7:FB:D5:CE:22:CF:20:12:8B:47:02:00
                DirName:/C=PL/O=HoneySpy network/OU=Master Server/CN=Master
                serial:96:57:A4:38:CA:54:71:56

    Signature Algorithm: md5WithRSAEncryption
        5f:9e:d8:80:f8:c3:c1:06:ea:61:1b:75:4d:2c:45:09:0c:55:
        6e:77:ae:37:69:d7:99:bc:b3:3b:fa:e2:41:0d:3a:8c:2e:b6:
        84:5f:86:dd:00:7a:dc:cc:b0:5b:4a:5b:93:8e:e1:51:b0:98:
        48:58:d5:b9:a2:3e:79:ad:83:ee:11:49:b6:91:a2:cc:7b:eb:
        7f:5e:39:7c:f2:59:17:b2:80:ee:d7:ce:5f:dc:81:8a:51:87:
        cc:5c:fd:16:a0:f7:85:75:01:0a:74:00:20:96:bc:28:05:1d:
        3b:3b:b8:9b:a2:38:a7:88:bd:4f:d9:d7:58:2d:83:4e:27:2d:
        0d:fb
-----BEGIN CERTIFICATE-----
MIIC8jCCAlugAwIBAgIBBTANBgkqhkiG9w0BAQQFADBRMQswCQYDVQQGEwJQTDEZ
MBcGA1UEChMQSG9uZXlTcHkgbmV0d29yazEWMBQGA1UECxMNTWFzdGVyIFNlcnZl
cjEPMA0GA1UEAxMGTWFzdGVyMB4XDTA1MTAzMTEzNTk0MFoXDTA2MTAzMTEzNTk0
MFowSzELMAkGA1UEBhMCUEwxGTAXBgNVBAoTEEhvbmV5U3B5IG5ldHdvcmsxDzAN
BgNVBAsTBlNlbnNvcjEQMA4GA1UEAxMHc2Vuc29yMTCBnzANBgkqhkiG9w0BAQEF
AAOBjQAwgYkCgYEA0DdadR0+4TitXCPpkXcEmIY55tf9H88V66XTICr38wNTYRcI
w/USBEG0DstkKEHaKo06zzjlosMz7PolsQ5Gf3TRtpSdY2O4MKzX47kVt1cfy8cX
NsklK4Q+Keth92p4R3YbPE1VCI336ZZbW41BFPC8SIJ9kursevzdoXXUpjkCAwEA
AaOB3zCB3DAJBgNVHRMEAjAAMCwGCWCGSAGG+EIBDQQfFh1PcGVuU1NMIEdlbmVy
YXRlZCBDZXJ0aWZpY2F0ZTAdBgNVHQ4EFgQUASyfXs8zN1OgJSUlwXPcz0SbIqkw
gYEGA1UdIwR6MHiAFGCyQaBLbcvN5/vVziLPIBKLRwIAoVWkUzBRMQswCQYDVQQG
EwJQTDEZMBcGA1UEChMQSG9uZXlTcHkgbmV0d29yazEWMBQGA1UECxMNTWFzdGVy
IFNlcnZlcjEPMA0GA1UEAxMGTWFzdGVyggkAllekOMpUcVYwDQYJKoZIhvcNAQEE
BQADgYEAX57YgPjDwQbqYRt1TSxFCQxVbneuN2nXmbyzO/riQQ06jC62hF+G3QB6
3MywW0pbk47hUbCYSFjVuaI+ea2D7hFJtpGizHvrf145fPJZF7KA7tfOX9yBilGH
zFz9FqD3hXUBCnQAIJa8KAUdOzu4m6I4p4i9T9nXWC2DTictDfs=
-----END CERTIFICATE-----
