Certificate:
    Data:
        Version: 3 (0x2)
        Serial Number: 1 (0x1)
        Signature Algorithm: md5WithRSAEncryption
        Issuer: C=pl, ST=Some-State, O=HoneySpy Main Server, CN=main
        Validity
            Not Before: Oct 23 19:42:43 2005 GMT
            Not After : Oct 23 19:42:43 2006 GMT
        Subject: C=pl, ST=Some-State, O=HoneySpy sensor1, CN=sensor1
        Subject Public Key Info:
            Public Key Algorithm: rsaEncryption
            RSA Public Key: (1024 bit)
                Modulus (1024 bit):
                    00:b6:55:22:7d:85:8a:89:15:a5:62:6f:d6:5b:ec:
                    d1:94:7c:53:09:49:a6:44:25:81:86:7c:17:25:dc:
                    45:70:b0:6a:ea:77:03:df:1a:73:19:e7:8f:04:25:
                    52:4b:5b:06:ca:6d:af:45:2c:05:04:97:a4:db:50:
                    f8:90:93:9f:45:8a:31:6e:cb:18:91:f6:bd:91:cb:
                    21:ab:56:ad:e7:de:0f:f0:78:20:90:81:53:25:d6:
                    63:50:09:90:a0:75:86:55:9c:d9:42:46:d5:ec:5f:
                    f9:78:b3:da:5f:55:ce:af:8e:01:a1:e4:2a:2d:d6:
                    85:6d:08:88:8e:ed:ac:b3:0d
                Exponent: 65537 (0x10001)
        X509v3 extensions:
            X509v3 Basic Constraints: 
                CA:FALSE
            Netscape Comment: 
                OpenSSL Generated Certificate
            X509v3 Subject Key Identifier: 
                E3:27:C1:93:A0:D4:39:4C:C6:02:48:64:12:9E:A3:14:3F:A0:5D:88
            X509v3 Authority Key Identifier: 
                keyid:2E:BD:4A:6C:D2:79:3A:48:F9:44:45:4C:89:B5:86:07:33:25:B4:29
                DirName:/C=pl/ST=Some-State/O=HoneySpy Main Server/CN=main
                serial:E8:AE:6B:7C:4B:13:67:B2

    Signature Algorithm: md5WithRSAEncryption
        86:0d:51:7d:81:94:87:36:6a:77:33:5e:72:61:bc:c5:e8:0a:
        83:23:30:70:20:55:77:54:0f:3c:90:0a:f2:7d:70:a0:dd:b5:
        a9:78:5c:82:91:54:19:ff:94:74:eb:ad:5b:0d:f6:fc:fc:d7:
        8e:41:be:61:77:06:80:d3:77:77:8b:41:60:06:83:64:c6:a7:
        63:9a:22:19:7c:ad:91:f7:15:6e:3e:ca:9a:54:f7:fa:51:38:
        07:3f:f3:69:9f:7a:58:b8:72:27:c8:4d:19:c9:f5:b5:07:fa:
        a5:63:f4:cf:a3:80:03:d4:c9:81:0d:2d:13:24:6f:62:ba:a2:
        0f:8c
-----BEGIN CERTIFICATE-----
MIIC9DCCAl2gAwIBAgIBATANBgkqhkiG9w0BAQQFADBQMQswCQYDVQQGEwJwbDET
MBEGA1UECBMKU29tZS1TdGF0ZTEdMBsGA1UEChMUSG9uZXlTcHkgTWFpbiBTZXJ2
ZXIxDTALBgNVBAMTBG1haW4wHhcNMDUxMDIzMTk0MjQzWhcNMDYxMDIzMTk0MjQz
WjBPMQswCQYDVQQGEwJwbDETMBEGA1UECBMKU29tZS1TdGF0ZTEZMBcGA1UEChMQ
SG9uZXlTcHkgc2Vuc29yMTEQMA4GA1UEAxMHc2Vuc29yMTCBnzANBgkqhkiG9w0B
AQEFAAOBjQAwgYkCgYEAtlUifYWKiRWlYm/WW+zRlHxTCUmmRCWBhnwXJdxFcLBq
6ncD3xpzGeePBCVSS1sGym2vRSwFBJek21D4kJOfRYoxbssYkfa9kcshq1at594P
8HggkIFTJdZjUAmQoHWGVZzZQkbV7F/5eLPaX1XOr44BoeQqLdaFbQiIju2ssw0C
AwEAAaOB3jCB2zAJBgNVHRMEAjAAMCwGCWCGSAGG+EIBDQQfFh1PcGVuU1NMIEdl
bmVyYXRlZCBDZXJ0aWZpY2F0ZTAdBgNVHQ4EFgQU4yfBk6DUOUzGAkhkEp6jFD+g
XYgwgYAGA1UdIwR5MHeAFC69SmzSeTpI+URFTIm1hgczJbQpoVSkUjBQMQswCQYD
VQQGEwJwbDETMBEGA1UECBMKU29tZS1TdGF0ZTEdMBsGA1UEChMUSG9uZXlTcHkg
TWFpbiBTZXJ2ZXIxDTALBgNVBAMTBG1haW6CCQDormt8SxNnsjANBgkqhkiG9w0B
AQQFAAOBgQCGDVF9gZSHNmp3M15yYbzF6AqDIzBwIFV3VA88kAryfXCg3bWpeFyC
kVQZ/5R0661bDfb8/NeOQb5hdwaA03d3i0FgBoNkxqdjmiIZfK2R9xVuPsqaVPf6
UTgHP/Npn3pYuHInyE0ZyfW1B/qlY/TPo4AD1MmBDS0TJG9iuqIPjA==
-----END CERTIFICATE-----
