Certificate:
    Data:
        Version: 3 (0x2)
        Serial Number: 3 (0x3)
        Signature Algorithm: md5WithRSAEncryption
        Issuer: C=PL, O=HoneySpy network, OU=Master Server, CN=Master
        Validity
            Not Before: Oct 23 20:25:14 2005 GMT
            Not After : Oct 23 20:25:14 2006 GMT
        Subject: C=PL, O=HoneySpy network, OU=Sensor, CN=sensor1
        Subject Public Key Info:
            Public Key Algorithm: rsaEncryption
            RSA Public Key: (1024 bit)
                Modulus (1024 bit):
                    00:bc:21:3f:e6:de:b9:d4:c2:76:45:12:33:24:2b:
                    ec:45:df:23:bc:f3:c9:ce:1f:e3:ea:68:91:a6:b2:
                    da:4b:97:c6:2a:16:56:15:35:ed:96:92:65:44:85:
                    f3:49:2b:3b:39:ff:30:1d:20:1a:a9:8b:67:fd:e5:
                    b1:09:37:c2:d5:aa:ff:16:e5:de:dd:63:8e:13:20:
                    6c:e8:6d:c9:b3:b3:9a:a4:dd:94:a5:de:cc:e9:bb:
                    61:b2:b9:d5:06:8b:e4:66:e9:fe:35:36:8d:e7:6f:
                    41:e9:eb:83:0f:24:13:e1:49:05:40:7c:76:e3:30:
                    c6:46:4d:f3:c5:52:0f:f1:5d
                Exponent: 65537 (0x10001)
        X509v3 extensions:
            X509v3 Basic Constraints: 
                CA:FALSE
            Netscape Comment: 
                OpenSSL Generated Certificate
            X509v3 Subject Key Identifier: 
                C9:9E:3F:86:0A:5D:05:C5:AF:BB:5A:82:8E:86:DF:2F:1F:08:5C:31
            X509v3 Authority Key Identifier: 
                keyid:F9:AC:06:36:17:64:2F:CB:C5:2C:DF:5C:9F:B9:40:E6:14:4C:99:5E
                DirName:/C=PL/O=HoneySpy network/OU=Master Server/CN=Master
                serial:DC:48:87:00:ED:00:DB:9A

    Signature Algorithm: md5WithRSAEncryption
        bd:56:9a:7e:68:fb:d5:74:18:44:4c:9a:97:c8:f0:f7:0e:f4:
        5f:94:96:6e:07:3a:1f:89:ad:68:0d:2e:bc:e8:7f:3d:95:e1:
        46:24:d0:00:de:1f:da:36:63:1a:a8:02:70:e1:f0:43:dc:02:
        11:07:9a:c2:c3:a3:13:e6:a5:6d:14:71:ce:d4:60:97:c4:9c:
        9e:13:f7:cf:c5:91:10:7b:78:6c:5b:f5:1a:09:ed:87:b7:fa:
        b3:45:58:01:02:8e:02:8f:56:95:04:ee:69:46:4f:48:49:5a:
        ab:3b:59:ca:2b:3a:e5:f2:c3:85:51:2b:3a:aa:cc:cf:c9:82:
        fd:2b
-----BEGIN CERTIFICATE-----
MIIC8jCCAlugAwIBAgIBAzANBgkqhkiG9w0BAQQFADBRMQswCQYDVQQGEwJQTDEZ
MBcGA1UEChMQSG9uZXlTcHkgbmV0d29yazEWMBQGA1UECxMNTWFzdGVyIFNlcnZl
cjEPMA0GA1UEAxMGTWFzdGVyMB4XDTA1MTAyMzIwMjUxNFoXDTA2MTAyMzIwMjUx
NFowSzELMAkGA1UEBhMCUEwxGTAXBgNVBAoTEEhvbmV5U3B5IG5ldHdvcmsxDzAN
BgNVBAsTBlNlbnNvcjEQMA4GA1UEAxMHc2Vuc29yMTCBnzANBgkqhkiG9w0BAQEF
AAOBjQAwgYkCgYEAvCE/5t651MJ2RRIzJCvsRd8jvPPJzh/j6miRprLaS5fGKhZW
FTXtlpJlRIXzSSs7Of8wHSAaqYtn/eWxCTfC1ar/FuXe3WOOEyBs6G3Js7OapN2U
pd7M6bthsrnVBovkZun+NTaN529B6euDDyQT4UkFQHx24zDGRk3zxVIP8V0CAwEA
AaOB3zCB3DAJBgNVHRMEAjAAMCwGCWCGSAGG+EIBDQQfFh1PcGVuU1NMIEdlbmVy
YXRlZCBDZXJ0aWZpY2F0ZTAdBgNVHQ4EFgQUyZ4/hgpdBcWvu1qCjobfLx8IXDEw
gYEGA1UdIwR6MHiAFPmsBjYXZC/LxSzfXJ+5QOYUTJleoVWkUzBRMQswCQYDVQQG
EwJQTDEZMBcGA1UEChMQSG9uZXlTcHkgbmV0d29yazEWMBQGA1UECxMNTWFzdGVy
IFNlcnZlcjEPMA0GA1UEAxMGTWFzdGVyggkA3EiHAO0A25owDQYJKoZIhvcNAQEE
BQADgYEAvVaafmj71XQYREyal8jw9w70X5SWbgc6H4mtaA0uvOh/PZXhRiTQAN4f
2jZjGqgCcOHwQ9wCEQeawsOjE+albRRxztRgl8ScnhP3z8WREHt4bFv1Ggnth7f6
s0VYAQKOAo9WlQTuaUZPSElaqztZyis65fLDhVErOqrMz8mC/Ss=
-----END CERTIFICATE-----
