Certificate:
    Data:
        Version: 3 (0x2)
        Serial Number: 1 (0x1)
        Signature Algorithm: md5WithRSAEncryption
        Issuer: C=pl, ST=Some-State, O=Urzad Certyfikacyjny HoneySpy, CN=ca
        Validity
            Not Before: Oct 23 19:16:55 2005 GMT
            Not After : Oct 23 19:16:55 2006 GMT
        Subject: C=pl, ST=Some-State, O=Serwer Centralny HoneySpy, CN=main
        Subject Public Key Info:
            Public Key Algorithm: rsaEncryption
            RSA Public Key: (1024 bit)
                Modulus (1024 bit):
                    00:fa:dd:2d:74:aa:8d:35:25:14:ad:41:3a:9e:8b:
                    ae:95:74:ab:56:d1:57:b6:dd:0e:4d:4a:e7:c6:67:
                    a1:ec:2d:f1:90:df:f8:25:7e:58:a5:f1:53:3c:1c:
                    a0:89:16:2c:f4:4f:a8:a2:d8:bb:f2:49:ca:e5:32:
                    4a:2a:5a:da:9d:07:0e:9f:85:a9:67:b5:c7:a3:48:
                    1f:6d:04:74:e9:4f:60:53:76:37:51:e8:29:fa:8b:
                    28:08:33:c3:ec:2e:09:bc:68:65:1b:52:59:80:90:
                    01:84:7e:0e:17:61:9b:f9:bc:f9:14:80:cf:c7:a0:
                    4a:27:10:21:32:12:6d:8f:8b
                Exponent: 65537 (0x10001)
        X509v3 extensions:
            X509v3 Basic Constraints: 
                CA:FALSE
            Netscape Comment: 
                OpenSSL Generated Certificate
            X509v3 Subject Key Identifier: 
                49:20:25:7B:22:55:70:17:BB:57:00:9B:B5:FE:23:49:75:26:3C:E7
            X509v3 Authority Key Identifier: 
                keyid:16:58:16:C1:40:FD:C7:24:7C:5E:70:99:9C:C7:BF:CF:9C:17:2C:53
                DirName:/C=pl/ST=Some-State/O=Urzad Certyfikacyjny HoneySpy/CN=ca
                serial:D3:21:77:EB:BC:E5:73:3F

    Signature Algorithm: md5WithRSAEncryption
        92:37:c1:a9:fd:26:ae:07:81:a4:37:41:88:64:ff:fb:e9:47:
        fb:70:31:8a:db:87:f4:c2:33:6e:ee:0b:af:5b:7d:4c:05:fe:
        64:e4:6f:45:c1:51:bd:ba:0c:c1:f1:12:e8:c4:cc:ba:da:54:
        17:56:57:14:30:47:76:3c:a4:78:5e:50:e7:83:af:99:39:1a:
        73:34:5b:79:75:91:59:56:f9:8c:7f:52:b3:9e:31:98:b5:8b:
        23:46:eb:cb:48:38:47:13:96:87:98:17:23:51:ee:3f:7a:76:
        d6:3a:62:54:92:e8:8e:a8:27:1f:30:2c:6d:be:3f:60:90:e1:
        fb:d1
-----BEGIN CERTIFICATE-----
MIIDCTCCAnKgAwIBAgIBATANBgkqhkiG9w0BAQQFADBXMQswCQYDVQQGEwJwbDET
MBEGA1UECBMKU29tZS1TdGF0ZTEmMCQGA1UEChMdVXJ6YWQgQ2VydHlmaWthY3lq
bnkgSG9uZXlTcHkxCzAJBgNVBAMTAmNhMB4XDTA1MTAyMzE5MTY1NVoXDTA2MTAy
MzE5MTY1NVowVTELMAkGA1UEBhMCcGwxEzARBgNVBAgTClNvbWUtU3RhdGUxIjAg
BgNVBAoTGVNlcndlciBDZW50cmFsbnkgSG9uZXlTcHkxDTALBgNVBAMTBG1haW4w
gZ8wDQYJKoZIhvcNAQEBBQADgY0AMIGJAoGBAPrdLXSqjTUlFK1BOp6LrpV0q1bR
V7bdDk1K58Znoewt8ZDf+CV+WKXxUzwcoIkWLPRPqKLYu/JJyuUySipa2p0HDp+F
qWe1x6NIH20EdOlPYFN2N1HoKfqLKAgzw+wuCbxoZRtSWYCQAYR+Dhdhm/m8+RSA
z8egSicQITISbY+LAgMBAAGjgeYwgeMwCQYDVR0TBAIwADAsBglghkgBhvhCAQ0E
HxYdT3BlblNTTCBHZW5lcmF0ZWQgQ2VydGlmaWNhdGUwHQYDVR0OBBYEFEkgJXsi
VXAXu1cAm7X+I0l1JjznMIGIBgNVHSMEgYAwfoAUFlgWwUD9xyR8XnCZnMe/z5wX
LFOhW6RZMFcxCzAJBgNVBAYTAnBsMRMwEQYDVQQIEwpTb21lLVN0YXRlMSYwJAYD
VQQKEx1VcnphZCBDZXJ0eWZpa2FjeWpueSBIb25leVNweTELMAkGA1UEAxMCY2GC
CQDTIXfrvOVzPzANBgkqhkiG9w0BAQQFAAOBgQCSN8Gp/SauB4GkN0GIZP/76Uf7
cDGK24f0wjNu7guvW31MBf5k5G9FwVG9ugzB8RLoxMy62lQXVlcUMEd2PKR4XlDn
g6+ZORpzNFt5dZFZVvmMf1KznjGYtYsjRuvLSDhHE5aHmBcjUe4/enbWOmJUkuiO
qCcfMCxtvj9gkOH70Q==
-----END CERTIFICATE-----
