Certificate:
    Data:
        Version: 3 (0x2)
        Serial Number: 2 (0x2)
        Signature Algorithm: md5WithRSAEncryption
        Issuer: C=pl, ST=Some-State, O=Urzad Certyfikacyjny HoneySpy, CN=ca
        Validity
            Not Before: Oct 23 19:18:47 2005 GMT
            Not After : Oct 23 19:18:47 2006 GMT
        Subject: C=pl, ST=Some-State, O=Sensor HoneySpy, CN=sensor1
        Subject Public Key Info:
            Public Key Algorithm: rsaEncryption
            RSA Public Key: (1024 bit)
                Modulus (1024 bit):
                    00:d7:f7:04:04:89:cc:2a:d1:2c:f9:9d:53:ce:36:
                    e6:df:dd:45:55:b1:9a:1d:27:78:03:77:c1:4b:60:
                    eb:e2:1e:74:19:ed:dd:b5:85:8b:47:ac:0a:98:f0:
                    43:04:c6:18:0f:51:5a:ea:bb:71:50:a1:67:e6:24:
                    2b:8a:b4:44:9f:07:0e:d2:9d:88:41:b9:ba:af:83:
                    6d:8c:4c:0c:8e:e5:29:9a:ae:8d:10:a4:68:b4:d9:
                    82:50:5f:28:72:7e:b2:d3:91:fb:2f:3f:76:ae:39:
                    10:a9:34:d1:a5:4e:54:d4:46:ec:a5:3e:0d:00:cb:
                    27:4d:48:bd:8d:5d:cb:78:95
                Exponent: 65537 (0x10001)
        X509v3 extensions:
            X509v3 Basic Constraints: 
                CA:FALSE
            Netscape Comment: 
                OpenSSL Generated Certificate
            X509v3 Subject Key Identifier: 
                D1:52:1F:D9:67:30:2D:69:2D:35:26:57:93:5C:E0:B4:8E:DA:2B:23
            X509v3 Authority Key Identifier: 
                keyid:16:58:16:C1:40:FD:C7:24:7C:5E:70:99:9C:C7:BF:CF:9C:17:2C:53
                DirName:/C=pl/ST=Some-State/O=Urzad Certyfikacyjny HoneySpy/CN=ca
                serial:D3:21:77:EB:BC:E5:73:3F

    Signature Algorithm: md5WithRSAEncryption
        2d:81:31:78:05:5a:ae:6c:07:c8:67:76:42:c4:74:00:b8:48:
        25:41:29:ec:7b:d3:ab:34:16:07:16:ff:08:fa:b9:71:43:0a:
        60:9b:5a:c9:02:ce:20:67:72:85:6f:56:f4:6b:86:d7:9e:0d:
        04:61:50:49:1b:f5:95:4b:c9:e7:8e:4e:3a:f5:fa:03:61:3b:
        63:96:6b:6e:8d:de:34:8c:4f:97:ec:20:e9:74:b1:69:e1:09:
        2b:76:a8:33:91:d0:83:2b:d6:ab:a8:79:bf:b5:ce:1c:ff:c0:
        a8:7a:1e:87:06:70:ee:f7:5b:4d:96:4b:ad:4b:ff:89:3e:1d:
        35:1e
-----BEGIN CERTIFICATE-----
MIIDAjCCAmugAwIBAgIBAjANBgkqhkiG9w0BAQQFADBXMQswCQYDVQQGEwJwbDET
MBEGA1UECBMKU29tZS1TdGF0ZTEmMCQGA1UEChMdVXJ6YWQgQ2VydHlmaWthY3lq
bnkgSG9uZXlTcHkxCzAJBgNVBAMTAmNhMB4XDTA1MTAyMzE5MTg0N1oXDTA2MTAy
MzE5MTg0N1owTjELMAkGA1UEBhMCcGwxEzARBgNVBAgTClNvbWUtU3RhdGUxGDAW
BgNVBAoTD1NlbnNvciBIb25leVNweTEQMA4GA1UEAxMHc2Vuc29yMTCBnzANBgkq
hkiG9w0BAQEFAAOBjQAwgYkCgYEA1/cEBInMKtEs+Z1Tzjbm391FVbGaHSd4A3fB
S2Dr4h50Ge3dtYWLR6wKmPBDBMYYD1Fa6rtxUKFn5iQrirREnwcO0p2IQbm6r4Nt
jEwMjuUpmq6NEKRotNmCUF8ocn6y05H7Lz92rjkQqTTRpU5U1EbspT4NAMsnTUi9
jV3LeJUCAwEAAaOB5jCB4zAJBgNVHRMEAjAAMCwGCWCGSAGG+EIBDQQfFh1PcGVu
U1NMIEdlbmVyYXRlZCBDZXJ0aWZpY2F0ZTAdBgNVHQ4EFgQU0VIf2WcwLWktNSZX
k1zgtI7aKyMwgYgGA1UdIwSBgDB+gBQWWBbBQP3HJHxecJmcx7/PnBcsU6FbpFkw
VzELMAkGA1UEBhMCcGwxEzARBgNVBAgTClNvbWUtU3RhdGUxJjAkBgNVBAoTHVVy
emFkIENlcnR5ZmlrYWN5am55IEhvbmV5U3B5MQswCQYDVQQDEwJjYYIJANMhd+u8
5XM/MA0GCSqGSIb3DQEBBAUAA4GBAC2BMXgFWq5sB8hndkLEdAC4SCVBKex706s0
FgcW/wj6uXFDCmCbWskCziBncoVvVvRrhteeDQRhUEkb9ZVLyeeOTjr1+gNhO2OW
a26N3jSMT5fsIOl0sWnhCSt2qDOR0IMr1quoeb+1zhz/wKh6HocGcO73W02WS61L
/4k+HTUe
-----END CERTIFICATE-----
